target datalayout = "e-m:e-p270:32:32-p271:32:32-p272:64:64-i64:64-i128:128-f80:128-n8:16:32:64-S128"
target triple = "x86_64-pc-linux-gnu"

%struct.SResource = type { ptr, i8, i8, i32, i32, i32, i32, i32, ptr, %struct.UString }
%struct.UString = type { ptr, i32, i32 }
%class.ContainerResource = type { %struct.SResource, i32, ptr }

; Function Attrs: inlinehint mustprogress nounwind uwtable
define internal noundef signext i8 @_ZL9U_FAILURE10UErrorCode(i32 noundef %0) #9 {
  %2 = alloca i32, align 4
  store i32 %0, ptr %2, align 4, !tbaa !45
  %3 = load i32, ptr %2, align 4, !tbaa !45
  %4 = icmp sgt i32 %3, 0
  %5 = zext i1 %4 to i8
  ret i8 %5
}

; Function Attrs: mustprogress uwtable
define dso_local void @_ZN9SResource16preflightStringsEP7SRBRootP10UHashtableR10UErrorCode(ptr noundef nonnull align 8 dereferenceable(56) %0, ptr noundef %1, ptr noundef %2, ptr noundef nonnull align 4 dereferenceable(4) %3) #5 align 2 {
  %5 = alloca ptr, align 8
  %6 = alloca ptr, align 8
  %7 = alloca ptr, align 8
  %8 = alloca ptr, align 8
  store ptr %0, ptr %5, align 8, !tbaa !24
  store ptr %1, ptr %6, align 8, !tbaa !39
  store ptr %2, ptr %7, align 8, !tbaa !103
  store ptr %3, ptr %8, align 8, !tbaa !44
  %9 = load ptr, ptr %5, align 8
  %10 = load ptr, ptr %8, align 8, !tbaa !44
  %11 = load i32, ptr %10, align 4, !tbaa !45
  %12 = call noundef signext i8 @_ZL9U_FAILURE10UErrorCode(i32 noundef %11)
  %13 = icmp ne i8 %12, 0
  br i1 %13, label %14, label %15

14:                                               ; preds = %4
  br label %27

15:                                               ; preds = %4
  %16 = getelementptr inbounds nuw %struct.SResource, ptr %9, i32 0, i32 3
  %17 = load i32, ptr %16, align 4, !tbaa !33
  %18 = icmp ne i32 %17, -1
  br i1 %18, label %19, label %20

19:                                               ; preds = %15
  br label %27

20:                                               ; preds = %15
  %21 = load ptr, ptr %6, align 8, !tbaa !39
  %22 = load ptr, ptr %7, align 8, !tbaa !103
  %23 = load ptr, ptr %8, align 8, !tbaa !44
  %24 = load ptr, ptr %9, align 8, !tbaa !26
  %25 = getelementptr inbounds ptr, ptr %24, i64 2
  %26 = load ptr, ptr %25, align 8
  call void %26(ptr noundef nonnull align 8 dereferenceable(56) %9, ptr noundef %21, ptr noundef %22, ptr noundef nonnull align 4 dereferenceable(4) %23)
  br label %27

27:                                               ; preds = %20, %19, %14
  ret void
}

; Function Attrs: mustprogress uwtable
define dso_local void @_ZN17ContainerResource22handlePreflightStringsEP7SRBRootP10UHashtableR10UErrorCode(ptr noundef nonnull align 8 dereferenceable(72) %0, ptr noundef %1, ptr noundef %2, ptr noundef nonnull align 4 dereferenceable(4) %3) unnamed_addr #5 align 2 {
  %5 = alloca ptr, align 8
  %6 = alloca ptr, align 8
  %7 = alloca ptr, align 8
  %8 = alloca ptr, align 8
  %9 = alloca ptr, align 8
  store ptr %0, ptr %5, align 8, !tbaa !53
  store ptr %1, ptr %6, align 8, !tbaa !39
  store ptr %2, ptr %7, align 8, !tbaa !103
  store ptr %3, ptr %8, align 8, !tbaa !44
  %10 = load ptr, ptr %5, align 8
  call void @llvm.lifetime.start.p0(i64 8, ptr %9) #3
  %11 = getelementptr inbounds nuw %class.ContainerResource, ptr %10, i32 0, i32 2
  %12 = load ptr, ptr %11, align 8, !tbaa !55
  store ptr %12, ptr %9, align 8, !tbaa !24
  br label %13

13:                                               ; preds = %22, %4
  %14 = load ptr, ptr %9, align 8, !tbaa !24
  %15 = icmp ne ptr %14, null
  br i1 %15, label %17, label %16

16:                                               ; preds = %13
  call void @llvm.lifetime.end.p0(i64 8, ptr %9) #3
  br label %26

17:                                               ; preds = %13
  %18 = load ptr, ptr %9, align 8, !tbaa !24
  %19 = load ptr, ptr %6, align 8, !tbaa !39
  %20 = load ptr, ptr %7, align 8, !tbaa !103
  %21 = load ptr, ptr %8, align 8, !tbaa !44
  call void @_ZN9SResource16preflightStringsEP7SRBRootP10UHashtableR10UErrorCode(ptr noundef nonnull align 8 dereferenceable(56) %18, ptr noundef %19, ptr noundef %20, ptr noundef nonnull align 4 dereferenceable(4) %21)
  br label %22

22:                                               ; preds = %17
  %23 = load ptr, ptr %9, align 8, !tbaa !24
  %24 = getelementptr inbounds nuw %struct.SResource, ptr %23, i32 0, i32 8
  %25 = load ptr, ptr %24, align 8, !tbaa !38
  store ptr %25, ptr %9, align 8, !tbaa !24
  br label %13, !llvm.loop !115

26:                                               ; preds = %16
  ret void
}