; Function Attrs: mustprogress uwtable
define dso_local void @_ZN17ContainerResource22handlePreflightStringsEP7SRBRootP10UHashtableR10UErrorCode(ptr noundef nonnull readonly align 8 captures(none) dereferenceable(72) %0, ptr noundef %1, ptr noundef %2, ptr noundef nonnull align 4 dereferenceable(4) %3) unnamed_addr #7 align 2 {
  %5 = getelementptr inbounds nuw i8, ptr %0, i64 64
  %.07 = load ptr, ptr %5, align 8, !tbaa !74
  %.not8 = icmp eq ptr %.07, null
  br i1 %.not8, label %._crit_edge, label %.lr.ph

._crit_edge:                                      ; preds = %_ZN9SResource16preflightStringsEP7SRBRootP10UHashtableR10UErrorCode.exit, %4
  ret void

.lr.ph:                                           ; preds = %4, %_ZN9SResource16preflightStringsEP7SRBRootP10UHashtableR10UErrorCode.exit
  %.09 = phi ptr [ %.0, %_ZN9SResource16preflightStringsEP7SRBRootP10UHashtableR10UErrorCode.exit ], [ %.07, %4 ]
  %6 = load i32, ptr %3, align 4, !tbaa !22
  %7 = icmp slt i32 %6, 1
  %8 = getelementptr inbounds nuw i8, ptr %.09, i64 12
  %9 = load i32, ptr %8, align 4
  %.not5.i = icmp eq i32 %9, -1
  %or.cond.i = select i1 %7, i1 %.not5.i, i1 false
  br i1 %or.cond.i, label %10, label %_ZN9SResource16preflightStringsEP7SRBRootP10UHashtableR10UErrorCode.exit

10:                                               ; preds = %.lr.ph
  %11 = load ptr, ptr %.09, align 8, !tbaa !9
  %12 = getelementptr inbounds nuw i8, ptr %11, i64 16
  %13 = load ptr, ptr %12, align 8
  tail call void %13(ptr noundef nonnull align 8 dereferenceable(56) %.09, ptr noundef %1, ptr noundef %2, ptr noundef nonnull align 4 dereferenceable(4) %3)
  br label %_ZN9SResource16preflightStringsEP7SRBRootP10UHashtableR10UErrorCode.exit

_ZN9SResource16preflightStringsEP7SRBRootP10UHashtableR10UErrorCode.exit: ; preds = %.lr.ph, %10
  %14 = getelementptr inbounds nuw i8, ptr %.09, i64 32
  %.0 = load ptr, ptr %14, align 8, !tbaa !74
  %.not = icmp eq ptr %.0, null
  br i1 %.not, label %._crit_edge, label %.lr.ph, !llvm.loop !75
}